; Function Attrs: mustprogress nofree nounwind uwtable
define dso_local void @_Z4InfoPKcz(ptr noundef readonly captures(none) %0, ...) local_unnamed_addr #6 {
  %2 = alloca [1 x %struct.__va_list_tag], align 16
  call void @llvm.lifetime.start.p0(i64 24, ptr nonnull %2) #32
  call void @llvm.va_start.p0(ptr nonnull %2)
  %3 = load ptr, ptr @stdout, align 8, !tbaa !4
  %4 = call i64 @fwrite(ptr nonnull @.str.4, i64 7, i64 1, ptr %3)
  %5 = load ptr, ptr @stdout, align 8, !tbaa !4
  %6 = call i32 @vfprintf(ptr noundef %5, ptr noundef readonly %0, ptr noundef nonnull %2) #32
  %7 = load ptr, ptr @stdout, align 8, !tbaa !4
  %fputc.i = call i32 @fputc(i32 10, ptr %7)
  call void @llvm.va_end.p0(ptr nonnull %2)
  call void @llvm.lifetime.end.p0(i64 24, ptr nonnull %2) #32
  ret void
}